target datalayout = "e-m:e-p270:32:32-p271:32:32-p272:64:64-i64:64-i128:128-f80:128-n8:16:32:64-S128"
target triple = "x86_64-pc-linux-gnu"

%struct.OptionsContext = type { ptr, i64, i64, i32, ptr, %struct.SpecifierOptList, %struct.SpecifierOptList, %struct.SpecifierOptList, %struct.SpecifierOptList, %struct.SpecifierOptList, %struct.SpecifierOptList, %struct.SpecifierOptList, %struct.SpecifierOptList, i64, i32, i32, float, float, double, i32, i32, i32, i32, %struct.SpecifierOptList, %struct.SpecifierOptList, %struct.SpecifierOptList, %struct.SpecifierOptList, %struct.SpecifierOptList, %struct.SpecifierOptList, %struct.SpecifierOptList, ptr, i32, ptr, i32, i32, i64, i64, i64, float, float, float, i32, i32, i32, i32, i32, i32, ptr, %struct.SpecifierOptList, %struct.SpecifierOptList, %struct.SpecifierOptList, %struct.SpecifierOptList, %struct.SpecifierOptList, %struct.SpecifierOptList, %struct.SpecifierOptList, %struct.SpecifierOptList, %struct.SpecifierOptList, %struct.SpecifierOptList, %struct.SpecifierOptList, %struct.SpecifierOptList, %struct.SpecifierOptList, %struct.SpecifierOptList, %struct.SpecifierOptList, %struct.SpecifierOptList, %struct.SpecifierOptList, %struct.SpecifierOptList, %struct.SpecifierOptList, %struct.SpecifierOptList, %struct.SpecifierOptList, %struct.SpecifierOptList, %struct.SpecifierOptList, %struct.SpecifierOptList, %struct.SpecifierOptList, %struct.SpecifierOptList, %struct.SpecifierOptList, %struct.SpecifierOptList, %struct.SpecifierOptList, %struct.SpecifierOptList, %struct.SpecifierOptList, %struct.SpecifierOptList, %struct.SpecifierOptList, %struct.SpecifierOptList, %struct.SpecifierOptList, %struct.SpecifierOptList, %struct.SpecifierOptList, %struct.SpecifierOptList, %struct.SpecifierOptList, %struct.SpecifierOptList, %struct.SpecifierOptList, %struct.SpecifierOptList, %struct.SpecifierOptList, %struct.SpecifierOptList, %struct.SpecifierOptList, %struct.SpecifierOptList, %struct.SpecifierOptList, %struct.SpecifierOptList, %struct.SpecifierOptList }
%struct.SpecifierOptList = type { ptr, i32, ptr, i32 }
%struct.Muxer = type { %struct.OutputFile, [32 x i8], ptr, ptr, i32, ptr, i32, ptr, ptr, i64, i64, i32, ptr, ptr }
%struct.OutputFile = type { ptr, i32, ptr, ptr, i32, i64, i64, i32 }
%struct.OutputStream = type { ptr, i32, ptr, i32, ptr, ptr, ptr, i32, i32, i32, %struct.AVRational, %struct.KeyframeForceCtx, ptr, ptr, ptr, ptr, ptr, i64, i32, %struct.EncStats, %struct.EncStats, i32 }
%struct.AVRational = type { i32, i32 }
%struct.KeyframeForceCtx = type { i32, i64, ptr, i32, i32, ptr, [5 x double], i32 }
%struct.EncStats = type { ptr, i32, ptr, %union.pthread_mutex_t, i32 }
%union.pthread_mutex_t = type { %struct.__pthread_mutex_s }
%struct.__pthread_mutex_s = type { i32, i32, i32, i32, i32, i16, i16, %struct.__pthread_internal_list }
%struct.__pthread_internal_list = type { ptr, ptr }
%struct.InputStream = type { ptr, ptr, i32, ptr, i32, ptr, ptr, ptr, %struct.AVRational, i32, i32, ptr, i32 }
%struct.Encoder = type { ptr, ptr, i64, i64 }
%struct.AVCodecContext = type { ptr, i32, i32, ptr, i32, i32, ptr, ptr, ptr, i64, i32, i32, ptr, i32, %struct.AVRational, %struct.AVRational, %struct.AVRational, i32, i32, i32, i32, i32, %struct.AVRational, i32, i32, i32, i32, i32, i32, i32, i32, i32, i32, i32, ptr, ptr, i32, float, float, float, float, float, float, float, float, float, i32, i32, i32, i32, i32, i32, i32, i32, i32, i32, i32, i32, ptr, ptr, ptr, i32, i32, i32, i32, i32, i32, i32, i32, i32, i32, %struct.AVChannelLayout, i32, i32, i32, i32, i32, i32, i32, i32, ptr, i32, i32, i32, float, float, i32, i32, i32, i32, i32, ptr, i64, i64, float, float, i32, i32, ptr, ptr, i32, i32, i32, i32, i32, ptr, ptr, ptr, ptr, i32, i32, [8 x i64], i32, i32, i32, i32, i32, i32, i32, ptr, ptr, i32, i32, i32, i32, i32, i32, i32, i32, i32, i32, ptr, ptr, i32, i32, ptr, ptr, ptr, ptr, i32, i32, i64, i32, i32, i64, ptr, i64, ptr, i32, ptr, i32 }
%struct.AVChannelLayout = type { i32, i32, %union.anon, ptr }
%union.anon = type { i64 }
%struct.AVCodecParameters = type { i32, i32, i32, ptr, i32, ptr, i32, i32, i64, i32, i32, i32, i32, i32, i32, %struct.AVRational, %struct.AVRational, i32, i32, i32, i32, i32, i32, i32, %struct.AVChannelLayout, i32, i32, i32, i32, i32, i32 }
%struct.AVCodecDescriptor = type { i32, i32, ptr, ptr, i32, ptr, ptr }

@.str.97 = private unnamed_addr constant [25 x i8] c"Invalid frame size: %s.\0A\00", align 1
@.str.121 = private unnamed_addr constant [81 x i8] c"Subtitle encoding currently only possible from text to text or bitmap to bitmap\0A\00", align 1

; Function Attrs: nounwind uwtable
define internal i32 @new_stream_subtitle(ptr noundef %0, ptr noundef %1, ptr noundef %2) #0 {
  %4 = alloca i32, align 4
  %5 = alloca ptr, align 8
  %6 = alloca ptr, align 8
  %7 = alloca ptr, align 8
  %8 = alloca ptr, align 8
  %9 = alloca ptr, align 8
  %10 = alloca ptr, align 8
  %11 = alloca ptr, align 8
  %12 = alloca i32, align 4
  %13 = alloca i32, align 4
  %14 = alloca ptr, align 8
  %15 = alloca i32, align 4
  %16 = alloca i32, align 4
  store ptr %0, ptr %5, align 8, !tbaa !34
  store ptr %1, ptr %6, align 8, !tbaa !13
  store ptr %2, ptr %7, align 8, !tbaa !95
  call void @llvm.lifetime.start.p0(i64 8, ptr %8) #12
  %17 = load ptr, ptr %7, align 8, !tbaa !95
  %18 = getelementptr inbounds nuw %struct.OutputStream, ptr %17, i32 0, i32 5
  %19 = load ptr, ptr %18, align 8, !tbaa !190
  store ptr %19, ptr %8, align 8, !tbaa !212
  %20 = load ptr, ptr %7, align 8, !tbaa !95
  %21 = getelementptr inbounds nuw %struct.OutputStream, ptr %20, i32 0, i32 6
  %22 = load ptr, ptr %21, align 8, !tbaa !97
  %23 = icmp ne ptr %22, null
  br i1 %23, label %24, label %100

24:                                               ; preds = %3
  call void @llvm.lifetime.start.p0(i64 8, ptr %9) #12
  %25 = load ptr, ptr %7, align 8, !tbaa !95
  %26 = getelementptr inbounds nuw %struct.OutputStream, ptr %25, i32 0, i32 6
  %27 = load ptr, ptr %26, align 8, !tbaa !97
  %28 = getelementptr inbounds nuw %struct.Encoder, ptr %27, i32 0, i32 1
  %29 = load ptr, ptr %28, align 8, !tbaa !231
  store ptr %29, ptr %9, align 8, !tbaa !368
  call void @llvm.lifetime.start.p0(i64 8, ptr %10) #12
  %30 = load ptr, ptr %7, align 8, !tbaa !95
  %31 = getelementptr inbounds nuw %struct.OutputStream, ptr %30, i32 0, i32 4
  %32 = load ptr, ptr %31, align 8, !tbaa !189
  %33 = getelementptr inbounds nuw %struct.InputStream, ptr %32, i32 0, i32 5
  %34 = load ptr, ptr %33, align 8, !tbaa !397
  %35 = getelementptr inbounds nuw %struct.AVCodecParameters, ptr %34, i32 0, i32 1
  %36 = load i32, ptr %35, align 4, !tbaa !271
  %37 = call ptr @avcodec_descriptor_get(i32 noundef %36)
  store ptr %37, ptr %10, align 8, !tbaa !274
  call void @llvm.lifetime.start.p0(i64 8, ptr %11) #12
  %38 = load ptr, ptr %9, align 8, !tbaa !368
  %39 = getelementptr inbounds nuw %struct.AVCodecContext, ptr %38, i32 0, i32 4
  %40 = load i32, ptr %39, align 8, !tbaa !398
  %41 = call ptr @avcodec_descriptor_get(i32 noundef %40)
  store ptr %41, ptr %11, align 8, !tbaa !274
  call void @llvm.lifetime.start.p0(i64 4, ptr %12) #12
  store i32 0, ptr %12, align 4, !tbaa !4
  call void @llvm.lifetime.start.p0(i64 4, ptr %13) #12
  store i32 0, ptr %13, align 4, !tbaa !4
  call void @llvm.lifetime.start.p0(i64 8, ptr %14) #12
  store ptr null, ptr %14, align 8, !tbaa !15
  %42 = load ptr, ptr %7, align 8, !tbaa !95
  %43 = load ptr, ptr %6, align 8, !tbaa !13
  %44 = getelementptr inbounds nuw %struct.OptionsContext, ptr %43, i32 0, i32 11
  %45 = load ptr, ptr %5, align 8, !tbaa !34
  %46 = getelementptr inbounds nuw %struct.Muxer, ptr %45, i32 0, i32 2
  %47 = load ptr, ptr %46, align 8, !tbaa !58
  %48 = load ptr, ptr %8, align 8, !tbaa !212
  call void @opt_match_per_stream_str(ptr noundef %42, ptr noundef %44, ptr noundef %47, ptr noundef %48, ptr noundef %14)
  %49 = load ptr, ptr %14, align 8, !tbaa !15
  %50 = icmp ne ptr %49, null
  br i1 %50, label %51, label %68

51:                                               ; preds = %24
  call void @llvm.lifetime.start.p0(i64 4, ptr %15) #12
  %52 = load ptr, ptr %9, align 8, !tbaa !368
  %53 = getelementptr inbounds nuw %struct.AVCodecContext, ptr %52, i32 0, i32 18
  %54 = load ptr, ptr %9, align 8, !tbaa !368
  %55 = getelementptr inbounds nuw %struct.AVCodecContext, ptr %54, i32 0, i32 19
  %56 = load ptr, ptr %14, align 8, !tbaa !15
  %57 = call i32 @av_parse_video_size(ptr noundef %53, ptr noundef %55, ptr noundef %56)
  store i32 %57, ptr %15, align 4, !tbaa !4
  %58 = load i32, ptr %15, align 4, !tbaa !4
  %59 = icmp slt i32 %58, 0
  br i1 %59, label %60, label %64

60:                                               ; preds = %51
  %61 = load ptr, ptr %7, align 8, !tbaa !95
  %62 = load ptr, ptr %14, align 8, !tbaa !15
  call void (ptr, i32, ptr, ...) @av_log(ptr noundef %61, i32 noundef 8, ptr noundef @.str.97, ptr noundef %62)
  %63 = load i32, ptr %15, align 4, !tbaa !4
  store i32 %63, ptr %4, align 4
  store i32 1, ptr %16, align 4
  br label %65

64:                                               ; preds = %51
  store i32 0, ptr %16, align 4
  br label %65

65:                                               ; preds = %64, %60
  call void @llvm.lifetime.end.p0(i64 4, ptr %15) #12
  %66 = load i32, ptr %16, align 4
  switch i32 %66, label %97 [
    i32 0, label %67
  ]

67:                                               ; preds = %65
  br label %68

68:                                               ; preds = %67, %24
  %69 = load ptr, ptr %10, align 8, !tbaa !274
  %70 = icmp ne ptr %69, null
  br i1 %70, label %71, label %76

71:                                               ; preds = %68
  %72 = load ptr, ptr %10, align 8, !tbaa !274
  %73 = getelementptr inbounds nuw %struct.AVCodecDescriptor, ptr %72, i32 0, i32 4
  %74 = load i32, ptr %73, align 8, !tbaa !277
  %75 = and i32 %74, 196608
  store i32 %75, ptr %12, align 4, !tbaa !4
  br label %76

76:                                               ; preds = %71, %68
  %77 = load ptr, ptr %11, align 8, !tbaa !274
  %78 = icmp ne ptr %77, null
  br i1 %78, label %79, label %84

79:                                               ; preds = %76
  %80 = load ptr, ptr %11, align 8, !tbaa !274
  %81 = getelementptr inbounds nuw %struct.AVCodecDescriptor, ptr %80, i32 0, i32 4
  %82 = load i32, ptr %81, align 8, !tbaa !277
  %83 = and i32 %82, 196608
  store i32 %83, ptr %13, align 4, !tbaa !4
  br label %84

84:                                               ; preds = %79, %76
  %85 = load i32, ptr %12, align 4, !tbaa !4
  %86 = icmp ne i32 %85, 0
  br i1 %86, label %87, label %96

87:                                               ; preds = %84
  %88 = load i32, ptr %13, align 4, !tbaa !4
  %89 = icmp ne i32 %88, 0
  br i1 %89, label %90, label %96

90:                                               ; preds = %87
  %91 = load i32, ptr %12, align 4, !tbaa !4
  %92 = load i32, ptr %13, align 4, !tbaa !4
  %93 = icmp ne i32 %91, %92
  br i1 %93, label %94, label %96

94:                                               ; preds = %90
  %95 = load ptr, ptr %7, align 8, !tbaa !95
  call void (ptr, i32, ptr, ...) @av_log(ptr noundef %95, i32 noundef 16, ptr noundef @.str.121)
  store i32 -22, ptr %4, align 4
  store i32 1, ptr %16, align 4
  br label %97

96:                                               ; preds = %90, %87, %84
  store i32 0, ptr %16, align 4
  br label %97

97:                                               ; preds = %96, %94, %65
  call void @llvm.lifetime.end.p0(i64 8, ptr %14) #12
  call void @llvm.lifetime.end.p0(i64 4, ptr %13) #12
  call void @llvm.lifetime.end.p0(i64 4, ptr %12) #12
  call void @llvm.lifetime.end.p0(i64 8, ptr %11) #12
  call void @llvm.lifetime.end.p0(i64 8, ptr %10) #12
  call void @llvm.lifetime.end.p0(i64 8, ptr %9) #12
  %98 = load i32, ptr %16, align 4
  switch i32 %98, label %101 [
    i32 0, label %99
  ]

99:                                               ; preds = %97
  br label %100

100:                                              ; preds = %99, %3
  store i32 0, ptr %4, align 4
  store i32 1, ptr %16, align 4
  br label %101

101:                                              ; preds = %100, %97
  call void @llvm.lifetime.end.p0(i64 8, ptr %8) #12
  %102 = load i32, ptr %4, align 4
  ret i32 %102
}