; Function Attrs: nounwind uwtable
define internal fastcc range(i32 -2147483648, 1) i32 @new_stream_subtitle(ptr noundef readonly captures(none) %0, ptr noundef %1, ptr noundef nonnull %2) unnamed_addr #0 {
  %4 = alloca ptr, align 8
  %5 = getelementptr inbounds nuw i8, ptr %2, i64 48
  %6 = load ptr, ptr %5, align 8, !tbaa !293
  %.not = icmp eq ptr %6, null
  br i1 %.not, label %45, label %7

7:                                                ; preds = %3
  %8 = getelementptr inbounds nuw i8, ptr %2, i64 40
  %9 = load ptr, ptr %8, align 8, !tbaa !158
  %10 = getelementptr inbounds nuw i8, ptr %6, i64 8
  %11 = load ptr, ptr %10, align 8, !tbaa !321
  %12 = getelementptr inbounds nuw i8, ptr %2, i64 32
  %13 = load ptr, ptr %12, align 8, !tbaa !219
  %14 = getelementptr inbounds nuw i8, ptr %13, i64 40
  %15 = load ptr, ptr %14, align 8, !tbaa !453
  %16 = getelementptr inbounds nuw i8, ptr %15, i64 4
  %17 = load i32, ptr %16, align 4, !tbaa !354
  %18 = tail call ptr @avcodec_descriptor_get(i32 noundef %17) #16
  %19 = getelementptr inbounds nuw i8, ptr %11, i64 24
  %20 = load i32, ptr %19, align 8, !tbaa !454
  %21 = tail call ptr @avcodec_descriptor_get(i32 noundef %20) #16
  call void @llvm.lifetime.start.p0(i64 8, ptr nonnull %4) #16
  store ptr null, ptr %4, align 8, !tbaa !139
  %22 = getelementptr inbounds nuw i8, ptr %1, i64 232
  %23 = getelementptr inbounds nuw i8, ptr %0, i64 96
  %24 = load ptr, ptr %23, align 8, !tbaa !51
  call void @opt_match_per_stream_str(ptr noundef nonnull %2, ptr noundef nonnull %22, ptr noundef %24, ptr noundef %9, ptr noundef nonnull %4) #16
  %25 = load ptr, ptr %4, align 8, !tbaa !139
  %.not35 = icmp eq ptr %25, null
  br i1 %.not35, label %.critedge, label %26

26:                                               ; preds = %7
  %27 = getelementptr inbounds nuw i8, ptr %11, i64 112
  %28 = getelementptr inbounds nuw i8, ptr %11, i64 116
  %29 = call i32 @av_parse_video_size(ptr noundef nonnull %27, ptr noundef nonnull %28, ptr noundef nonnull %25) #16
  %30 = icmp sgt i32 %29, -1
  br i1 %30, label %.critedge, label %31

31:                                               ; preds = %26
  %32 = load ptr, ptr %4, align 8, !tbaa !139
  call void (ptr, i32, ptr, ...) @av_log(ptr noundef nonnull %2, i32 noundef 8, ptr noundef nonnull @.str.97, ptr noundef %32) #16
  br label %.sink.split

.critedge:                                        ; preds = %26, %7
  %.not36 = icmp eq ptr %18, null
  br i1 %.not36, label %37, label %33

33:                                               ; preds = %.critedge
  %34 = getelementptr inbounds nuw i8, ptr %18, i64 24
  %35 = load i32, ptr %34, align 8, !tbaa !359
  %36 = and i32 %35, 196608
  br label %37

37:                                               ; preds = %33, %.critedge
  %.030 = phi i32 [ %36, %33 ], [ 0, %.critedge ]
  %.not37 = icmp eq ptr %21, null
  br i1 %.not37, label %.sink.split, label %38

38:                                               ; preds = %37
  %39 = getelementptr inbounds nuw i8, ptr %21, i64 24
  %40 = load i32, ptr %39, align 8, !tbaa !359
  %41 = and i32 %40, 196608
  %42 = icmp eq i32 %.030, 0
  %43 = icmp eq i32 %41, 0
  %or.cond.not50 = select i1 %42, i1 true, i1 %43
  %.not38 = icmp eq i32 %.030, %41
  %or.cond39 = select i1 %or.cond.not50, i1 true, i1 %.not38
  br i1 %or.cond39, label %.sink.split, label %44

44:                                               ; preds = %38
  call void (ptr, i32, ptr, ...) @av_log(ptr noundef nonnull %2, i32 noundef 16, ptr noundef nonnull @.str.121) #16
  br label %.sink.split

.sink.split:                                      ; preds = %44, %31, %37, %38
  %.3.ph = phi i32 [ 0, %38 ], [ 0, %37 ], [ -22, %44 ], [ %29, %31 ]
  call void @llvm.lifetime.end.p0(i64 8, ptr nonnull %4) #16
  br label %45

45:                                               ; preds = %.sink.split, %3
  %.3 = phi i32 [ 0, %3 ], [ %.3.ph, %.sink.split ]
  ret i32 %.3
}